target datalayout = "e-m:e-p270:32:32-p271:32:32-p272:64:64-i64:64-i128:128-f80:128-n8:16:32:64-S128"
target triple = "x86_64-pc-linux-gnu"

%"class.llvm::MCRegister" = type { i32 }
%"class.llvm::ilist_node_impl.5" = type { %"class.llvm::ilist_node_base.6" }
%"class.llvm::ilist_node_base.6" = type { %"class.llvm::ilist_detail::node_base_prevnext.7" }
%"class.llvm::ilist_detail::node_base_prevnext.7" = type { %"class.llvm::PointerIntPair", ptr }
%"class.llvm::PointerIntPair" = type { %"struct.llvm::detail::PunnedPointer" }
%"struct.llvm::detail::PunnedPointer" = type { [8 x i8] }
%"class.llvm::MachineInstr" = type <{ %"class.llvm::ilist_node_with_parent.73", ptr, ptr, ptr, [3 x i8], %"class.llvm::ArrayRecycler<llvm::MachineOperand>::Capacity", i32, %"class.llvm::PointerSumType", %"class.llvm::DebugLoc", i32, i16, [2 x i8] }>
%"class.llvm::ilist_node_with_parent.73" = type { %"class.llvm::ilist_node.74" }
%"class.llvm::ilist_node.74" = type { %"class.llvm::ilist_node_impl.5" }
%"class.llvm::ArrayRecycler<llvm::MachineOperand>::Capacity" = type { i8 }
%"class.llvm::PointerSumType" = type { %"union.llvm::PointerSumType<llvm::MachineInstr::ExtraInfoInlineKinds, llvm::PointerSumTypeMember<0, llvm::MachineMemOperand *>, llvm::PointerSumTypeMember<1, llvm::MCSymbol *>, llvm::PointerSumTypeMember<2, llvm::MCSymbol *>, llvm::PointerSumTypeMember<3, llvm::MachineInstr::ExtraInfo *>>::StorageT" }
%"union.llvm::PointerSumType<llvm::MachineInstr::ExtraInfoInlineKinds, llvm::PointerSumTypeMember<0, llvm::MachineMemOperand *>, llvm::PointerSumTypeMember<1, llvm::MCSymbol *>, llvm::PointerSumTypeMember<2, llvm::MCSymbol *>, llvm::PointerSumTypeMember<3, llvm::MachineInstr::ExtraInfo *>>::StorageT" = type { i64 }
%"class.llvm::DebugLoc" = type { %"class.llvm::TypedTrackingMDRef" }
%"class.llvm::TypedTrackingMDRef" = type { %"class.llvm::TrackingMDRef" }
%"class.llvm::TrackingMDRef" = type { ptr }

; Function Attrs: mustprogress nounwind uwtable
define linkonce_odr hidden noundef ptr @_ZN4llvm12MachineInstr9getParentEv(ptr noundef nonnull align 8 dereferenceable(70) %0) #0 comdat align 2 {
  %2 = alloca ptr, align 8
  store ptr %0, ptr %2, align 8
  %3 = load ptr, ptr %2, align 8
  %4 = getelementptr inbounds nuw %"class.llvm::MachineInstr", ptr %3, i32 0, i32 2
  %5 = load ptr, ptr %4, align 8
  ret ptr %5
}

; Function Attrs: mustprogress nounwind uwtable
define dso_local noundef zeroext i1 @_ZNK4llvm19ReachingDefAnalysis18hasSameReachingDefEPNS_12MachineInstrES2_NS_10MCRegisterE(ptr noundef nonnull align 8 dereferenceable(444) %0, ptr noundef %1, ptr noundef %2, i32 %3) #0 align 2 {
  %5 = alloca i1, align 1
  %6 = alloca %"class.llvm::MCRegister", align 4
  %7 = alloca ptr, align 8
  %8 = alloca ptr, align 8
  %9 = alloca ptr, align 8
  %10 = alloca ptr, align 8
  %11 = alloca ptr, align 8
  %12 = alloca %"class.llvm::MCRegister", align 4
  %13 = alloca %"class.llvm::MCRegister", align 4
  %14 = getelementptr inbounds nuw %"class.llvm::MCRegister", ptr %6, i32 0, i32 0
  store i32 %3, ptr %14, align 4
  store ptr %0, ptr %7, align 8
  store ptr %1, ptr %8, align 8
  store ptr %2, ptr %9, align 8
  %15 = load ptr, ptr %7, align 8
  %16 = load ptr, ptr %8, align 8
  %17 = call noundef ptr @_ZN4llvm12MachineInstr9getParentEv(ptr noundef nonnull align 8 dereferenceable(70) %16)
  store ptr %17, ptr %10, align 8
  %18 = load ptr, ptr %9, align 8
  %19 = call noundef ptr @_ZN4llvm12MachineInstr9getParentEv(ptr noundef nonnull align 8 dereferenceable(70) %18)
  store ptr %19, ptr %11, align 8
  %20 = load ptr, ptr %10, align 8
  %21 = load ptr, ptr %11, align 8
  %22 = icmp ne ptr %20, %21
  br i1 %22, label %23, label %24

23:                                               ; preds = %4
  store i1 false, ptr %5, align 1
  br label %34

24:                                               ; preds = %4
  %25 = load ptr, ptr %8, align 8
  call void @llvm.memcpy.p0.p0.i64(ptr align 4 %12, ptr align 4 %6, i64 4, i1 false)
  %26 = getelementptr inbounds nuw %"class.llvm::MCRegister", ptr %12, i32 0, i32 0
  %27 = load i32, ptr %26, align 4
  %28 = call noundef i32 @_ZNK4llvm19ReachingDefAnalysis14getReachingDefEPNS_12MachineInstrENS_10MCRegisterE(ptr noundef nonnull align 8 dereferenceable(444) %15, ptr noundef %25, i32 %27)
  %29 = load ptr, ptr %9, align 8
  call void @llvm.memcpy.p0.p0.i64(ptr align 4 %13, ptr align 4 %6, i64 4, i1 false)
  %30 = getelementptr inbounds nuw %"class.llvm::MCRegister", ptr %13, i32 0, i32 0
  %31 = load i32, ptr %30, align 4
  %32 = call noundef i32 @_ZNK4llvm19ReachingDefAnalysis14getReachingDefEPNS_12MachineInstrENS_10MCRegisterE(ptr noundef nonnull align 8 dereferenceable(444) %15, ptr noundef %29, i32 %31)
  %33 = icmp eq i32 %28, %32
  store i1 %33, ptr %5, align 1
  br label %34

34:                                               ; preds = %24, %23
  %35 = load i1, ptr %5, align 1
  ret i1 %35
}