; Function Attrs: mustprogress nounwind uwtable
define dso_local noundef zeroext i1 @_ZNK4llvm19ReachingDefAnalysis18hasSameReachingDefEPNS_12MachineInstrES2_NS_10MCRegisterE(ptr nocapture noundef nonnull readonly align 8 dereferenceable(444) %0, ptr noundef %1, ptr noundef %2, i32 %3) local_unnamed_addr #0 align 2 {
  %5 = getelementptr inbounds nuw i8, ptr %1, i64 24
  %6 = load ptr, ptr %5, align 8
  %7 = getelementptr inbounds nuw i8, ptr %2, i64 24
  %8 = load ptr, ptr %7, align 8
  %.not = icmp eq ptr %6, %8
  br i1 %.not, label %9, label %13

9:                                                ; preds = %4
  %10 = tail call noundef i32 @_ZNK4llvm19ReachingDefAnalysis14getReachingDefEPNS_12MachineInstrENS_10MCRegisterE(ptr noundef nonnull align 8 dereferenceable(444) %0, ptr noundef nonnull %1, i32 %3)
  %11 = tail call noundef i32 @_ZNK4llvm19ReachingDefAnalysis14getReachingDefEPNS_12MachineInstrENS_10MCRegisterE(ptr noundef nonnull align 8 dereferenceable(444) %0, ptr noundef nonnull %2, i32 %3)
  %12 = icmp eq i32 %10, %11
  br label %13

13:                                               ; preds = %4, %9
  %.0 = phi i1 [ %12, %9 ], [ false, %4 ]
  ret i1 %.0
}